target datalayout = "e-m:e-p270:32:32-p271:32:32-p272:64:64-i64:64-i128:128-f80:128-n8:16:32:64-S128"
target triple = "x86_64-unknown-linux-gnu"

%class.mpq = type { %class.mpz, %class.mpz }
%class.mpz = type { i32, i8, ptr }
%class.bound_propagator = type { ptr, ptr, %class.linear_equation_manager, %class.svector.4, %class.svector.0, %class.svector.0, %class.ptr_vector, %class.ptr_vector, %class.vector.7, %class.svector.8, i32, %class.svector.2, %class.svector.2, %class.svector.2, i32, i32, %class.mpq, %class.svector.10, %class.svector.2, i32, double, double, double, i32, i32, i32, %class.svector.12 }
%class.linear_equation_manager = type { ptr, ptr, %class.numeral_buffer, %class.numeral_buffer, %class.svector.0, %class.svector.2 }
%class.numeral_buffer = type { ptr, %class.svector }
%class.svector = type { %class.vector }
%class.vector = type { ptr }
%class.svector.4 = type { %class.vector.5 }
%class.vector.5 = type { ptr }
%class.svector.0 = type { %class.vector.1 }
%class.vector.1 = type { ptr }
%class.ptr_vector = type { %class.vector.6 }
%class.vector.6 = type { ptr }
%class.vector.7 = type { ptr }
%class.svector.8 = type { %class.vector.9 }
%class.vector.9 = type { ptr }
%class.svector.10 = type { %class.vector.11 }
%class.vector.11 = type { ptr }
%class.svector.2 = type { %class.vector.3 }
%class.vector.3 = type { ptr }
%class.svector.12 = type { %class.vector.13 }
%class.vector.13 = type { ptr }
%"class.bound_propagator::constraint" = type { i8, i32, i32, i32, %union.anon.14 }
%union.anon.14 = type { ptr }

@.str = private unnamed_addr constant [124 x i8] c"generated/home/dtcxzyw/WorkSpace/Projects/compilers/llvm-opt-benchmark/bench/z3/z3/src/ast/simplifiers/bound_propagator.cpp\00", align 1
@.str.1 = private unnamed_addr constant [29 x i8] c"UNEXPECTED CODE WAS REACHED.\00", align 1

; Function Attrs: mustprogress uwtable
define hidden void @_ZN16bound_propagator14del_constraintERNS_10constraintE(ptr noundef nonnull align 8 dereferenceable(280) %this, ptr noundef nonnull align 8 dereferenceable(24) %c) #4 align 2 {
entry:
  %this.addr = alloca ptr, align 8
  %c.addr = alloca ptr, align 8
  store ptr %this, ptr %this.addr, align 8
  store ptr %c, ptr %c.addr, align 8
  %this1 = load ptr, ptr %this.addr, align 8
  %0 = load ptr, ptr %c.addr, align 8
  %bf.load = load i8, ptr %0, align 8
  %bf.clear = and i8 %bf.load, 3
  %bf.cast = zext i8 %bf.clear to i32
  switch i32 %bf.cast, label %sw.default [
    i32 0, label %sw.bb
  ]

sw.bb:                                            ; preds = %entry
  %m_eq_manager = getelementptr inbounds %class.bound_propagator, ptr %this1, i32 0, i32 2
  %1 = load ptr, ptr %c.addr, align 8
  %2 = getelementptr inbounds %"class.bound_propagator::constraint", ptr %1, i32 0, i32 4
  %3 = load ptr, ptr %2, align 8
  call void @_ZN23linear_equation_manager3delEP15linear_equation(ptr noundef nonnull align 8 dereferenceable(64) %m_eq_manager, ptr noundef %3)
  br label %sw.epilog

sw.default:                                       ; preds = %entry
  call void @_Z26notify_assertion_violationPKciS0_(ptr noundef @.str, i32 noundef 110, ptr noundef @.str.1)
  call void @exit(i32 noundef 114) #14
  unreachable

sw.epilog:                                        ; preds = %sw.bb
  ret void
}