; Function Attrs: mustprogress uwtable
define hidden void @_ZN16bound_propagator14del_constraintERNS_10constraintE(ptr noundef nonnull align 8 dereferenceable(280) %this, ptr nocapture noundef nonnull readonly align 8 dereferenceable(24) %c) local_unnamed_addr #3 align 2 {
entry:
  %bf.load = load i8, ptr %c, align 8
  %bf.clear = and i8 %bf.load, 3
  %cond = icmp eq i8 %bf.clear, 0
  br i1 %cond, label %sw.bb, label %sw.default

sw.bb:                                            ; preds = %entry
  %m_eq_manager = getelementptr inbounds i8, ptr %this, i64 16
  %0 = getelementptr inbounds i8, ptr %c, i64 16
  %1 = load ptr, ptr %0, align 8
  tail call void @_ZN23linear_equation_manager3delEP15linear_equation(ptr noundef nonnull align 8 dereferenceable(64) %m_eq_manager, ptr noundef %1)
  ret void

sw.default:                                       ; preds = %entry
  tail call void @_Z26notify_assertion_violationPKciS0_(ptr noundef nonnull @.str, i32 noundef 110, ptr noundef nonnull @.str.1)
  tail call void @exit(i32 noundef 114) #19
  unreachable
}